; Function Attrs: nounwind uwtable
define dso_local void @jq_set_attr(ptr noundef captures(none) %0, i64 %1, ptr %2, i64 %3, ptr %4) local_unnamed_addr #0 {
  %6 = getelementptr inbounds nuw i8, ptr %0, i64 176
  %7 = load i64, ptr %6, align 8
  %8 = getelementptr inbounds nuw i8, ptr %0, i64 184
  %9 = load ptr, ptr %8, align 8
  %10 = tail call { i64, ptr } @jv_object_set(i64 %7, ptr %9, i64 %1, ptr %2, i64 %3, ptr %4) #13
  %11 = extractvalue { i64, ptr } %10, 0
  %12 = extractvalue { i64, ptr } %10, 1
  store i64 %11, ptr %6, align 8
  store ptr %12, ptr %8, align 8, !tbaa !19
  ret void
}